; Function Attrs: nofree norecurse nosync nounwind memory(none) uwtable
define i64 @FT_Tan(i64 noundef %0) local_unnamed_addr #4 {
  %2 = icmp slt i64 %0, -2949120
  br i1 %2, label %.lr.ph.i, label %.preheader53.i

.preheader53.i:                                   ; preds = %1
  %3 = icmp sgt i64 %0, 2949120
  br i1 %3, label %.lr.ph62.i, label %.preheader.i.preheader

.lr.ph.i:                                         ; preds = %1, %.lr.ph.i
  %.04256.i = phi i64 [ %4, %.lr.ph.i ], [ 0, %1 ]
  %.04455.i = phi i64 [ %.04256.i, %.lr.ph.i ], [ 16777216, %1 ]
  %.04954.i = phi i64 [ %5, %.lr.ph.i ], [ %0, %1 ]
  %4 = sub nsw i64 0, %.04455.i
  %5 = add nsw i64 %.04954.i, 5898240
  %6 = icmp samesign ult i64 %.04954.i, -8847360
  br i1 %6, label %.lr.ph.i, label %.preheader.i.preheader, !llvm.loop !549

.lr.ph62.i:                                       ; preds = %.preheader53.i, %.lr.ph62.i
  %.14361.i = phi i64 [ %.14560.i, %.lr.ph62.i ], [ 0, %.preheader53.i ]
  %.14560.i = phi i64 [ %7, %.lr.ph62.i ], [ 16777216, %.preheader53.i ]
  %.15059.i = phi i64 [ %8, %.lr.ph62.i ], [ %0, %.preheader53.i ]
  %7 = sub nsw i64 0, %.14361.i
  %8 = add nsw i64 %.15059.i, -5898240
  %9 = icmp samesign ugt i64 %.15059.i, 8847360
  br i1 %9, label %.lr.ph62.i, label %.preheader.i.preheader, !llvm.loop !550

.preheader.i.preheader:                           ; preds = %.lr.ph62.i, %.lr.ph.i, %.preheader53.i
  %.269.i.ph = phi i64 [ 0, %.preheader53.i ], [ %4, %.lr.ph.i ], [ %.14560.i, %.lr.ph62.i ]
  %.24668.i.ph = phi i64 [ 16777216, %.preheader53.i ], [ %.04256.i, %.lr.ph.i ], [ %7, %.lr.ph62.i ]
  %.25166.i.ph = phi i64 [ %0, %.preheader53.i ], [ %5, %.lr.ph.i ], [ %8, %.lr.ph62.i ]
  br label %.preheader.i

.preheader.i:                                     ; preds = %.preheader.i.preheader, %24
  %indvars.iv.i = phi i64 [ %indvars.iv.next.i, %24 ], [ 1, %.preheader.i.preheader ]
  %.071.i = phi ptr [ %.1.i, %24 ], [ @ft_trig_arctan_table, %.preheader.i.preheader ]
  %.04170.i = phi i64 [ %25, %24 ], [ 1, %.preheader.i.preheader ]
  %.269.i = phi i64 [ %.3.i, %24 ], [ %.269.i.ph, %.preheader.i.preheader ]
  %.24668.i = phi i64 [ %.347.i, %24 ], [ %.24668.i.ph, %.preheader.i.preheader ]
  %.25166.i = phi i64 [ %.352.i, %24 ], [ %.25166.i.ph, %.preheader.i.preheader ]
  %10 = icmp slt i64 %.25166.i, 0
  %11 = add nsw i64 %.269.i, %.04170.i
  %12 = ashr i64 %11, %indvars.iv.i
  %13 = add nsw i64 %.24668.i, %.04170.i
  %14 = ashr i64 %13, %indvars.iv.i
  %15 = load i64, ptr %.071.i, align 8, !tbaa !37
  br i1 %10, label %16, label %20

16:                                               ; preds = %.preheader.i
  %17 = add nsw i64 %12, %.24668.i
  %18 = sub nsw i64 %.269.i, %14
  %19 = add nsw i64 %15, %.25166.i
  br label %24

20:                                               ; preds = %.preheader.i
  %21 = sub nsw i64 %.24668.i, %12
  %22 = add nsw i64 %14, %.269.i
  %23 = sub nsw i64 %.25166.i, %15
  br label %24

24:                                               ; preds = %20, %16
  %.352.i = phi i64 [ %19, %16 ], [ %23, %20 ]
  %.347.i = phi i64 [ %17, %16 ], [ %21, %20 ]
  %.3.i = phi i64 [ %18, %16 ], [ %22, %20 ]
  %.1.i = getelementptr inbounds nuw i8, ptr %.071.i, i64 8
  %25 = shl i64 %.04170.i, 1
  %indvars.iv.next.i = add nuw nsw i64 %indvars.iv.i, 1
  %exitcond.not.i = icmp eq i64 %indvars.iv.next.i, 23
  br i1 %exitcond.not.i, label %ft_trig_pseudo_rotate.exit, label %.preheader.i, !llvm.loop !551

ft_trig_pseudo_rotate.exit:                       ; preds = %24
  %.not.i = icmp eq i64 %.347.i, 0
  br i1 %.not.i, label %FT_DivFix.exit, label %26

26:                                               ; preds = %ft_trig_pseudo_rotate.exit
  %.017.i = tail call i64 @llvm.abs.i64(i64 %.347.i, i1 false)
  %.016.i = tail call i64 @llvm.abs.i64(i64 %.3.i, i1 false)
  %27 = shl i64 %.016.i, 16
  %28 = lshr i64 %.017.i, 1
  %29 = add i64 %27, %28
  %30 = udiv i64 %29, %.017.i
  br label %FT_DivFix.exit

FT_DivFix.exit:                                   ; preds = %ft_trig_pseudo_rotate.exit, %26
  %31 = phi i64 [ %30, %26 ], [ 2147483647, %ft_trig_pseudo_rotate.exit ]
  %32 = xor i64 %.3.i, %.347.i
  %33 = icmp slt i64 %32, 0
  %34 = sub i64 0, %31
  %35 = select i1 %33, i64 %34, i64 %31
  ret i64 %35
}